; ModuleID = '40/2900.c'
source_filename = "40/2900.c"
target datalayout = "e-m:e-p270:32:32-p271:32:32-p272:64:64-i64:64-f80:128-n8:16:32:64-S128"
target triple = "x86_64-pc-linux-gnu"

@.str = private unnamed_addr constant [16 x i8] c"%lf%lf%lf%lf%lf\00", align 1
@.str.1 = private unnamed_addr constant [15 x i8] c"Invalid input\0A\00", align 1
@.str.2 = private unnamed_addr constant [7 x i8] c"%.4lf\0A\00", align 1

; Function Attrs: noinline nounwind uwtable
define dso_local double @mianji(double %0, double %1, double %2, double %3, double %4) #0 {
  %6 = alloca double, align 8
  %7 = alloca double, align 8
  %8 = alloca double, align 8
  %9 = alloca double, align 8
  %10 = alloca double, align 8
  %11 = alloca double, align 8
  %12 = alloca double, align 8
  %13 = alloca double, align 8
  store double %0, double* %7, align 8
  store double %1, double* %8, align 8
  store double %2, double* %9, align 8
  store double %3, double* %10, align 8
  store double %4, double* %11, align 8
  %14 = load double, double* %7, align 8
  %15 = load double, double* %8, align 8
  %16 = fadd double %14, %15
  %17 = load double, double* %9, align 8
  %18 = fadd double %16, %17
  %19 = load double, double* %10, align 8
  %20 = fadd double %18, %19
  %21 = fdiv double %20, 2.000000e+00
  store double %21, double* %13, align 8
  %22 = load double, double* %13, align 8
  %23 = load double, double* %7, align 8
  %24 = fsub double %22, %23
  %25 = load double, double* %13, align 8
  %26 = load double, double* %8, align 8
  %27 = fsub double %25, %26
  %28 = fmul double %24, %27
  %29 = load double, double* %13, align 8
  %30 = load double, double* %9, align 8
  %31 = fsub double %29, %30
  %32 = fmul double %28, %31
  %33 = load double, double* %13, align 8
  %34 = load double, double* %10, align 8
  %35 = fsub double %33, %34
  %36 = fmul double %32, %35
  %37 = load double, double* %7, align 8
  %38 = load double, double* %8, align 8
  %39 = fmul double %37, %38
  %40 = load double, double* %9, align 8
  %41 = fmul double %39, %40
  %42 = load double, double* %10, align 8
  %43 = fmul double %41, %42
  %44 = load double, double* %11, align 8
  %45 = fmul double %44, 3.140000e+00
  %46 = fdiv double %45, 1.800000e+02
  %47 = call double @cos(double %46) #3
  %48 = fmul double %43, %47
  %49 = load double, double* %11, align 8
  %50 = fmul double %49, 3.140000e+00
  %51 = fdiv double %50, 1.800000e+02
  %52 = call double @cos(double %51) #3
  %53 = fmul double %48, %52
  %54 = fsub double %36, %53
  %55 = call double @sqrt(double %54) #3
  store double %55, double* %12, align 8
  %56 = load double, double* %12, align 8
  %57 = fcmp oge double %56, 0.000000e+00
  br i1 %57, label %58, label %60

58:                                               ; preds = %5
  %59 = load double, double* %12, align 8
  store double %59, double* %6, align 8
  br label %61

60:                                               ; preds = %5
  store double -1.000000e+00, double* %6, align 8
  br label %61

61:                                               ; preds = %60, %58
  %62 = load double, double* %6, align 8
  ret double %62
}

; Function Attrs: nounwind
declare dso_local double @sqrt(double) #1

; Function Attrs: nounwind
declare dso_local double @cos(double) #1

; Function Attrs: noinline nounwind uwtable
define dso_local i32 @main() #0 {
  %1 = alloca i32, align 4
  %2 = alloca double, align 8
  %3 = alloca double, align 8
  %4 = alloca double, align 8
  %5 = alloca double, align 8
  %6 = alloca double, align 8
  %7 = alloca double, align 8
  store i32 0, i32* %1, align 4
  %8 = call i32 (i8*, ...) @__isoc99_scanf(i8* getelementptr inbounds ([16 x i8], [16 x i8]* @.str, i64 0, i64 0), double* %2, double* %3, double* %4, double* %5, double* %6)
  %9 = load double, double* %2, align 8
  %10 = load double, double* %3, align 8
  %11 = load double, double* %4, align 8
  %12 = load double, double* %5, align 8
  %13 = load double, double* %6, align 8
  %14 = fdiv double %13, 2.000000e+00
  %15 = call double @mianji(double %9, double %10, double %11, double %12, double %14)
  store double %15, double* %7, align 8
  %16 = load double, double* %7, align 8
  %17 = fcmp oeq double %16, -1.000000e+00
  br i1 %17, label %18, label %20

18:                                               ; preds = %0
  %19 = call i32 (i8*, ...) @printf(i8* getelementptr inbounds ([15 x i8], [15 x i8]* @.str.1, i64 0, i64 0))
  br label %23

20:                                               ; preds = %0
  %21 = load double, double* %7, align 8
  %22 = call i32 (i8*, ...) @printf(i8* getelementptr inbounds ([7 x i8], [7 x i8]* @.str.2, i64 0, i64 0), double %21)
  br label %23

23:                                               ; preds = %20, %18
  ret i32 0
}

declare dso_local i32 @__isoc99_scanf(i8*, ...) #2

declare dso_local i32 @printf(i8*, ...) #2


!llvm.module.flags = !{!0}
!llvm.ident = !{!1}

!0 = !{i32 1, !"wchar_size", i32 4}
!1 = !{!"clang version 10.0.0-4ubuntu1 "}
