; ModuleID = 'source-C-CXX/39/2900.c'
source_filename = "source-C-CXX/39/2900.c"
target datalayout = "e-m:e-p270:32:32-p271:32:32-p272:64:64-i64:64-f80:128-n8:16:32:64-S128"
target triple = "x86_64-pc-linux-gnu"

@.str = private unnamed_addr constant [16 x i8] c"%lf%lf%lf%lf%lf\00", align 1
@.str.2 = private unnamed_addr constant [7 x i8] c"%.4lf\0A\00", align 1
@str = private unnamed_addr constant [14 x i8] c"Invalid input\00", align 1

; Function Attrs: mustprogress nofree nounwind sspstrong uwtable willreturn
define dso_local double @mianji(double %0, double %1, double %2, double %3, double %4) local_unnamed_addr #0 {
  %6 = fadd double %0, %1
  %7 = fadd double %6, %2
  %8 = fadd double %7, %3
  %9 = fmul double %8, 5.000000e-01
  %10 = fsub double %9, %0
  %11 = fsub double %9, %1
  %12 = fmul double %10, %11
  %13 = fsub double %9, %2
  %14 = fmul double %13, %12
  %15 = fsub double %9, %3
  %16 = fmul double %15, %14
  %17 = fmul double %0, %1
  %18 = fmul double %17, %2
  %19 = fmul double %18, %3
  %20 = fmul double %4, 3.140000e+00
  %21 = fdiv double %20, 1.800000e+02
  %22 = tail call double @cos(double %21) #6
  %23 = fmul double %19, %22
  %24 = tail call double @cos(double %21) #6
  %25 = fmul double %23, %24
  %26 = fsub double %16, %25
  %27 = tail call double @sqrt(double %26) #6
  %28 = fcmp ult double %27, 0.000000e+00
  %29 = select i1 %28, double -1.000000e+00, double %27
  ret double %29
}

; Function Attrs: argmemonly mustprogress nofree nosync nounwind willreturn
declare void @llvm.lifetime.start.p0i8(i64 immarg, i8* nocapture) #1

; Function Attrs: mustprogress nofree nounwind willreturn
declare double @sqrt(double) local_unnamed_addr #2

; Function Attrs: mustprogress nofree nounwind willreturn
declare double @cos(double) local_unnamed_addr #2

; Function Attrs: argmemonly mustprogress nofree nosync nounwind willreturn
declare void @llvm.lifetime.end.p0i8(i64 immarg, i8* nocapture) #1

; Function Attrs: nofree nounwind sspstrong uwtable
define dso_local i32 @main() local_unnamed_addr #3 {
  %1 = alloca double, align 8
  %2 = alloca double, align 8
  %3 = alloca double, align 8
  %4 = alloca double, align 8
  %5 = alloca double, align 8
  %6 = bitcast double* %1 to i8*
  call void @llvm.lifetime.start.p0i8(i64 8, i8* nonnull %6) #6
  %7 = bitcast double* %2 to i8*
  call void @llvm.lifetime.start.p0i8(i64 8, i8* nonnull %7) #6
  %8 = bitcast double* %3 to i8*
  call void @llvm.lifetime.start.p0i8(i64 8, i8* nonnull %8) #6
  %9 = bitcast double* %4 to i8*
  call void @llvm.lifetime.start.p0i8(i64 8, i8* nonnull %9) #6
  %10 = bitcast double* %5 to i8*
  call void @llvm.lifetime.start.p0i8(i64 8, i8* nonnull %10) #6
  %11 = call i32 (i8*, ...) @__isoc99_scanf(i8* getelementptr inbounds ([16 x i8], [16 x i8]* @.str, i64 0, i64 0), double* nonnull %1, double* nonnull %2, double* nonnull %3, double* nonnull %4, double* nonnull %5)
  %12 = load double, double* %1, align 8, !tbaa !5
  %13 = load double, double* %2, align 8, !tbaa !5
  %14 = load double, double* %3, align 8, !tbaa !5
  %15 = load double, double* %4, align 8, !tbaa !5
  %16 = load double, double* %5, align 8, !tbaa !5
  %17 = fmul double %16, 5.000000e-01
  %18 = fadd double %12, %13
  %19 = fadd double %18, %14
  %20 = fadd double %19, %15
  %21 = fmul double %20, 5.000000e-01
  %22 = fsub double %21, %12
  %23 = fsub double %21, %13
  %24 = fmul double %22, %23
  %25 = fsub double %21, %14
  %26 = fmul double %25, %24
  %27 = fsub double %21, %15
  %28 = fmul double %27, %26
  %29 = fmul double %12, %13
  %30 = fmul double %29, %14
  %31 = fmul double %30, %15
  %32 = fmul double %17, 3.140000e+00
  %33 = fdiv double %32, 1.800000e+02
  %34 = call double @cos(double %33) #6
  %35 = fmul double %31, %34
  %36 = call double @cos(double %33) #6
  %37 = fmul double %35, %36
  %38 = fsub double %28, %37
  %39 = call double @sqrt(double %38) #6
  %40 = fcmp ult double %39, 0.000000e+00
  %41 = select i1 %40, double -1.000000e+00, double %39
  %42 = fcmp oeq double %41, -1.000000e+00
  br i1 %42, label %43, label %45

43:                                               ; preds = %0
  %44 = call i32 @puts(i8* nonnull dereferenceable(1) getelementptr inbounds ([14 x i8], [14 x i8]* @str, i64 0, i64 0))
  br label %47

45:                                               ; preds = %0
  %46 = call i32 (i8*, ...) @printf(i8* nonnull dereferenceable(1) getelementptr inbounds ([7 x i8], [7 x i8]* @.str.2, i64 0, i64 0), double %41)
  br label %47

47:                                               ; preds = %45, %43
  call void @llvm.lifetime.end.p0i8(i64 8, i8* nonnull %10) #6
  call void @llvm.lifetime.end.p0i8(i64 8, i8* nonnull %9) #6
  call void @llvm.lifetime.end.p0i8(i64 8, i8* nonnull %8) #6
  call void @llvm.lifetime.end.p0i8(i64 8, i8* nonnull %7) #6
  call void @llvm.lifetime.end.p0i8(i64 8, i8* nonnull %6) #6
  ret i32 0
}

; Function Attrs: nofree nounwind
declare noundef i32 @__isoc99_scanf(i8* nocapture noundef readonly, ...) local_unnamed_addr #4

; Function Attrs: nofree nounwind
declare noundef i32 @printf(i8* nocapture noundef readonly, ...) local_unnamed_addr #4

; Function Attrs: nofree nounwind
declare noundef i32 @puts(i8* nocapture noundef readonly) local_unnamed_addr #5


!llvm.module.flags = !{!0, !1, !2, !3}
!llvm.ident = !{!4}

!0 = !{i32 1, !"wchar_size", i32 4}
!1 = !{i32 7, !"PIC Level", i32 2}
!2 = !{i32 7, !"PIE Level", i32 2}
!3 = !{i32 7, !"uwtable", i32 1}
!4 = !{!"clang version 13.0.0"}
!5 = !{!6, !6, i64 0}
!6 = !{!"double", !7, i64 0}
!7 = !{!"omnipotent char", !8, i64 0}
!8 = !{!"Simple C/C++ TBAA"}
